target datalayout = "e-m:e-p270:32:32-p271:32:32-p272:64:64-i64:64-i128:128-f80:128-n8:16:32:64-S128"
target triple = "x86_64-pc-linux-gnu"

%struct._zend_refcounted_h = type { i32, %union.anon }
%union.anon = type { i32 }
%struct._zend_accel_shared_globals = type { i64, i64, i64, i64, i64, i64, %struct._zend_accel_hash, i64, i64, i64, i64, i8, i8, i32, i8, i8, i8, ptr, ptr, [2 x i32], ptr, ptr, %struct._zend_string_table }
%struct._zend_accel_hash = type { ptr, ptr, i32, i32, i32 }
%struct._zend_string_table = type { i32, i32, ptr, ptr, ptr, ptr }
%struct._zend_string = type { %struct._zend_refcounted_h, i64, i64, [1 x i8] }

@accel_shared_globals = hidden global ptr null, align 8

; Function Attrs: alwaysinline nounwind uwtable
define internal i32 @zend_gc_set_refcount(ptr noundef %0, i32 noundef %1) #3 {
  %3 = alloca ptr, align 8
  %4 = alloca i32, align 4
  store ptr %0, ptr %3, align 8, !tbaa !66
  store i32 %1, ptr %4, align 4, !tbaa !4
  %5 = load i32, ptr %4, align 4, !tbaa !4
  %6 = load ptr, ptr %3, align 8, !tbaa !66
  %7 = getelementptr inbounds nuw %struct._zend_refcounted_h, ptr %6, i32 0, i32 0
  store i32 %5, ptr %7, align 4, !tbaa !68
  %8 = load ptr, ptr %3, align 8, !tbaa !66
  %9 = getelementptr inbounds nuw %struct._zend_refcounted_h, ptr %8, i32 0, i32 0
  %10 = load i32, ptr %9, align 4, !tbaa !68
  ret i32 %10
}

; Function Attrs: alwaysinline nounwind uwtable
define internal i32 @zend_gc_refcount(ptr noundef %0) #3 {
  %2 = alloca ptr, align 8
  store ptr %0, ptr %2, align 8, !tbaa !66
  %3 = load ptr, ptr %2, align 8, !tbaa !66
  %4 = getelementptr inbounds nuw %struct._zend_refcounted_h, ptr %3, i32 0, i32 0
  %5 = load i32, ptr %4, align 4, !tbaa !68
  ret i32 %5
}

; Function Attrs: alwaysinline nounwind uwtable
define internal i32 @zval_gc_flags(i32 noundef %0) #3 {
  %2 = alloca i32, align 4
  store i32 %0, ptr %2, align 4, !tbaa !4
  %3 = load i32, ptr %2, align 4, !tbaa !4
  %4 = lshr i32 %3, 0
  %5 = and i32 %4, 1008
  ret i32 %5
}

; Function Attrs: nounwind uwtable
define internal void @accel_interned_strings_restore_state() #0 {
  %1 = alloca ptr, align 8
  %2 = alloca ptr, align 8
  %3 = alloca ptr, align 8
  %4 = alloca i32, align 4
  %5 = alloca i64, align 8
  call void @llvm.lifetime.start.p0(i64 8, ptr %1) #19
  call void @llvm.lifetime.start.p0(i64 8, ptr %2) #19
  call void @llvm.lifetime.start.p0(i64 8, ptr %3) #19
  call void @llvm.lifetime.start.p0(i64 4, ptr %4) #19
  %6 = load ptr, ptr @accel_shared_globals, align 8, !tbaa !29
  %7 = getelementptr inbounds nuw %struct._zend_accel_shared_globals, ptr %6, i32 0, i32 22
  %8 = getelementptr inbounds nuw %struct._zend_string_table, ptr %7, i32 0, i32 5
  %9 = load ptr, ptr %8, align 8, !tbaa !275
  %10 = load ptr, ptr @accel_shared_globals, align 8, !tbaa !29
  %11 = getelementptr inbounds nuw %struct._zend_accel_shared_globals, ptr %10, i32 0, i32 22
  %12 = getelementptr inbounds nuw %struct._zend_string_table, ptr %11, i32 0, i32 3
  %13 = load ptr, ptr %12, align 8, !tbaa !55
  %14 = load ptr, ptr @accel_shared_globals, align 8, !tbaa !29
  %15 = getelementptr inbounds nuw %struct._zend_accel_shared_globals, ptr %14, i32 0, i32 22
  %16 = getelementptr inbounds nuw %struct._zend_string_table, ptr %15, i32 0, i32 5
  %17 = load ptr, ptr %16, align 8, !tbaa !275
  %18 = ptrtoint ptr %13 to i64
  %19 = ptrtoint ptr %17 to i64
  %20 = sub i64 %18, %19
  call void @llvm.memset.p0.i64(ptr align 8 %9, i8 0, i64 %20, i1 false)
  %21 = load ptr, ptr @accel_shared_globals, align 8, !tbaa !29
  %22 = getelementptr inbounds nuw %struct._zend_accel_shared_globals, ptr %21, i32 0, i32 22
  %23 = getelementptr inbounds nuw %struct._zend_string_table, ptr %22, i32 0, i32 5
  %24 = load ptr, ptr %23, align 8, !tbaa !275
  %25 = load ptr, ptr @accel_shared_globals, align 8, !tbaa !29
  %26 = getelementptr inbounds nuw %struct._zend_accel_shared_globals, ptr %25, i32 0, i32 22
  %27 = getelementptr inbounds nuw %struct._zend_string_table, ptr %26, i32 0, i32 3
  store ptr %24, ptr %27, align 8, !tbaa !55
  %28 = load ptr, ptr @accel_shared_globals, align 8, !tbaa !29
  %29 = getelementptr inbounds nuw %struct._zend_accel_shared_globals, ptr %28, i32 0, i32 22
  %30 = getelementptr inbounds nuw i8, ptr %29, i64 40
  %31 = load ptr, ptr @accel_shared_globals, align 8, !tbaa !29
  %32 = getelementptr inbounds nuw %struct._zend_accel_shared_globals, ptr %31, i32 0, i32 22
  %33 = getelementptr inbounds nuw %struct._zend_string_table, ptr %32, i32 0, i32 2
  %34 = load ptr, ptr %33, align 8, !tbaa !54
  %35 = load ptr, ptr @accel_shared_globals, align 8, !tbaa !29
  %36 = getelementptr inbounds nuw %struct._zend_accel_shared_globals, ptr %35, i32 0, i32 22
  %37 = getelementptr inbounds nuw i8, ptr %36, i64 40
  %38 = ptrtoint ptr %34 to i64
  %39 = ptrtoint ptr %37 to i64
  %40 = sub i64 %38, %39
  call void @llvm.memset.p0.i64(ptr align 1 %30, i8 0, i64 %40, i1 false)
  %41 = load ptr, ptr @accel_shared_globals, align 8, !tbaa !29
  %42 = getelementptr inbounds nuw %struct._zend_accel_shared_globals, ptr %41, i32 0, i32 22
  %43 = getelementptr inbounds nuw %struct._zend_string_table, ptr %42, i32 0, i32 2
  %44 = load ptr, ptr %43, align 8, !tbaa !54
  store ptr %44, ptr %1, align 8, !tbaa !52
  %45 = load ptr, ptr @accel_shared_globals, align 8, !tbaa !29
  %46 = getelementptr inbounds nuw %struct._zend_accel_shared_globals, ptr %45, i32 0, i32 22
  %47 = getelementptr inbounds nuw %struct._zend_string_table, ptr %46, i32 0, i32 3
  %48 = load ptr, ptr %47, align 8, !tbaa !55
  store ptr %48, ptr %2, align 8, !tbaa !52
  store i32 0, ptr %4, align 4, !tbaa !4
  %49 = load ptr, ptr %1, align 8, !tbaa !52
  %50 = load ptr, ptr %2, align 8, !tbaa !52
  %51 = icmp ult ptr %49, %50
  %52 = xor i1 %51, true
  %53 = xor i1 %52, true
  %54 = zext i1 %53 to i32
  %55 = sext i32 %54 to i64
  %56 = call i64 @llvm.expect.i64(i64 %55, i64 1)
  %57 = icmp ne i64 %56, 0
  br i1 %57, label %58, label %136

58:                                               ; preds = %0
  br label %59

59:                                               ; preds = %131, %58
  %60 = load ptr, ptr %1, align 8, !tbaa !52
  %61 = getelementptr inbounds nuw %struct._zend_string, ptr %60, i32 0, i32 0
  %62 = getelementptr inbounds nuw %struct._zend_refcounted_h, ptr %61, i32 0, i32 1
  %63 = load i32, ptr %62, align 4, !tbaa !65
  %64 = call i32 @zval_gc_flags(i32 noundef %63)
  %65 = and i32 %64, 32
  %66 = icmp ne i32 %65, 0
  br i1 %66, label %67, label %92

67:                                               ; preds = %59
  call void @llvm.lifetime.start.p0(i64 8, ptr %5) #19
  %68 = load ptr, ptr %1, align 8, !tbaa !52
  %69 = getelementptr inbounds nuw %struct._zend_string, ptr %68, i32 0, i32 0
  %70 = call i32 @zend_gc_refcount(ptr noundef %69)
  %71 = sub i32 %70, 1
  %72 = zext i32 %71 to i64
  %73 = udiv i64 %72, 8
  store i64 %73, ptr %5, align 8, !tbaa !56
  %74 = load i64, ptr %5, align 8, !tbaa !56
  %75 = load ptr, ptr @accel_shared_globals, align 8, !tbaa !29
  %76 = getelementptr inbounds nuw %struct._zend_accel_shared_globals, ptr %75, i32 0, i32 7
  %77 = load i64, ptr %76, align 8, !tbaa !274
  %78 = icmp uge i64 %74, %77
  br i1 %78, label %79, label %91

79:                                               ; preds = %67
  %80 = load ptr, ptr %1, align 8, !tbaa !52
  %81 = getelementptr inbounds nuw %struct._zend_string, ptr %80, i32 0, i32 0
  %82 = call i32 @zend_gc_set_refcount(ptr noundef %81, i32 noundef 2)
  br label %83

83:                                               ; preds = %79
  %84 = load ptr, ptr %1, align 8, !tbaa !52
  %85 = getelementptr inbounds nuw %struct._zend_string, ptr %84, i32 0, i32 0
  %86 = getelementptr inbounds nuw %struct._zend_refcounted_h, ptr %85, i32 0, i32 1
  %87 = load i32, ptr %86, align 4, !tbaa !65
  %88 = and i32 %87, -33
  store i32 %88, ptr %86, align 4, !tbaa !65
  br label %89

89:                                               ; preds = %83
  br label %90

90:                                               ; preds = %89
  br label %91

91:                                               ; preds = %90, %67
  call void @llvm.lifetime.end.p0(i64 8, ptr %5) #19
  br label %92

92:                                               ; preds = %91, %59
  %93 = load ptr, ptr @accel_shared_globals, align 8, !tbaa !29
  %94 = getelementptr inbounds nuw %struct._zend_accel_shared_globals, ptr %93, i32 0, i32 22
  %95 = getelementptr inbounds nuw i8, ptr %94, i64 40
  %96 = load ptr, ptr %1, align 8, !tbaa !52
  %97 = getelementptr inbounds nuw %struct._zend_string, ptr %96, i32 0, i32 1
  %98 = load i64, ptr %97, align 8, !tbaa !60
  %99 = load ptr, ptr @accel_shared_globals, align 8, !tbaa !29
  %100 = getelementptr inbounds nuw %struct._zend_accel_shared_globals, ptr %99, i32 0, i32 22
  %101 = getelementptr inbounds nuw %struct._zend_string_table, ptr %100, i32 0, i32 0
  %102 = load i32, ptr %101, align 8, !tbaa !57
  %103 = zext i32 %102 to i64
  %104 = and i64 %98, %103
  %105 = getelementptr inbounds nuw i8, ptr %95, i64 %104
  store ptr %105, ptr %3, align 8, !tbaa !58
  %106 = load ptr, ptr %3, align 8, !tbaa !58
  %107 = load i32, ptr %106, align 4, !tbaa !4
  %108 = load ptr, ptr %1, align 8, !tbaa !52
  %109 = getelementptr inbounds i8, ptr %108, i64 -4
  store i32 %107, ptr %109, align 4, !tbaa !4
  %110 = load ptr, ptr %1, align 8, !tbaa !52
  %111 = load ptr, ptr @accel_shared_globals, align 8, !tbaa !29
  %112 = getelementptr inbounds nuw %struct._zend_accel_shared_globals, ptr %111, i32 0, i32 22
  %113 = ptrtoint ptr %110 to i64
  %114 = ptrtoint ptr %112 to i64
  %115 = sub i64 %113, %114
  %116 = sdiv i64 %115, 8
  %117 = trunc i64 %116 to i32
  %118 = load ptr, ptr %3, align 8, !tbaa !58
  store i32 %117, ptr %118, align 4, !tbaa !4
  %119 = load ptr, ptr %1, align 8, !tbaa !52
  %120 = load ptr, ptr %1, align 8, !tbaa !52
  %121 = getelementptr inbounds nuw %struct._zend_string, ptr %120, i32 0, i32 2
  %122 = load i64, ptr %121, align 8, !tbaa !63
  %123 = add i64 24, %122
  %124 = add i64 %123, 1
  %125 = add i64 %124, 4
  %126 = add i64 %125, 7
  %127 = and i64 %126, -8
  %128 = getelementptr inbounds nuw i8, ptr %119, i64 %127
  store ptr %128, ptr %1, align 8, !tbaa !52
  %129 = load i32, ptr %4, align 4, !tbaa !4
  %130 = add i32 %129, 1
  store i32 %130, ptr %4, align 4, !tbaa !4
  br label %131

131:                                              ; preds = %92
  %132 = load ptr, ptr %1, align 8, !tbaa !52
  %133 = load ptr, ptr %2, align 8, !tbaa !52
  %134 = icmp ult ptr %132, %133
  br i1 %134, label %59, label %135

135:                                              ; preds = %131
  br label %136

136:                                              ; preds = %135, %0
  %137 = load i32, ptr %4, align 4, !tbaa !4
  %138 = load ptr, ptr @accel_shared_globals, align 8, !tbaa !29
  %139 = getelementptr inbounds nuw %struct._zend_accel_shared_globals, ptr %138, i32 0, i32 22
  %140 = getelementptr inbounds nuw %struct._zend_string_table, ptr %139, i32 0, i32 1
  store i32 %137, ptr %140, align 4, !tbaa !64
  call void @llvm.lifetime.end.p0(i64 4, ptr %4) #19
  call void @llvm.lifetime.end.p0(i64 8, ptr %3) #19
  call void @llvm.lifetime.end.p0(i64 8, ptr %2) #19
  call void @llvm.lifetime.end.p0(i64 8, ptr %1) #19
  ret void
}