; Function Attrs: nofree norecurse nosync nounwind memory(readwrite, inaccessiblemem: none) uwtable
define internal fastcc void @accel_interned_strings_restore_state() unnamed_addr #12 {
  %1 = load ptr, ptr @accel_shared_globals, align 8, !tbaa !28
  %2 = getelementptr inbounds nuw i8, ptr %1, i64 200
  %3 = load ptr, ptr %2, align 8, !tbaa !261
  %4 = getelementptr inbounds nuw i8, ptr %1, i64 184
  %5 = load ptr, ptr %4, align 8, !tbaa !55
  %6 = ptrtoint ptr %5 to i64
  %7 = ptrtoint ptr %3 to i64
  %8 = sub i64 %6, %7
  tail call void @llvm.memset.p0.i64(ptr align 8 %3, i8 0, i64 %8, i1 false)
  %9 = load ptr, ptr @accel_shared_globals, align 8, !tbaa !28
  %10 = getelementptr inbounds nuw i8, ptr %9, i64 200
  %11 = load ptr, ptr %10, align 8, !tbaa !261
  %12 = getelementptr inbounds nuw i8, ptr %9, i64 184
  store ptr %11, ptr %12, align 8, !tbaa !55
  %13 = getelementptr inbounds nuw i8, ptr %9, i64 208
  %14 = getelementptr inbounds nuw i8, ptr %9, i64 176
  %15 = load ptr, ptr %14, align 8, !tbaa !54
  %16 = ptrtoint ptr %15 to i64
  %17 = ptrtoint ptr %13 to i64
  %18 = sub i64 %16, %17
  tail call void @llvm.memset.p0.i64(ptr nonnull align 1 %13, i8 0, i64 %18, i1 false)
  %19 = icmp ult ptr %15, %11
  br i1 %19, label %.preheader, label %.loopexit, !prof !40

.preheader:                                       ; preds = %0, %33
  %20 = phi ptr [ %34, %33 ], [ %9, %0 ]
  %.1 = phi i32 [ %55, %33 ], [ 0, %0 ]
  %.0 = phi ptr [ %54, %33 ], [ %15, %0 ]
  %21 = getelementptr inbounds nuw i8, ptr %.0, i64 4
  %22 = load i32, ptr %21, align 4, !tbaa !64
  %23 = and i32 %22, 32
  %.not = icmp eq i32 %23, 0
  br i1 %.not, label %33, label %24

24:                                               ; preds = %.preheader
  %25 = load i32, ptr %.0, align 4, !tbaa !63
  %26 = add i32 %25, -1
  %27 = lshr i32 %26, 3
  %28 = zext nneg i32 %27 to i64
  %29 = getelementptr inbounds nuw i8, ptr %20, i64 80
  %30 = load i64, ptr %29, align 8, !tbaa !253
  %.not20 = icmp ugt i64 %30, %28
  br i1 %.not20, label %33, label %31

31:                                               ; preds = %24
  store i32 2, ptr %.0, align 4, !tbaa !63
  %32 = and i32 %22, -33
  store i32 %32, ptr %21, align 4, !tbaa !64
  %.pre = load ptr, ptr @accel_shared_globals, align 8, !tbaa !28
  br label %33

33:                                               ; preds = %24, %31, %.preheader
  %34 = phi ptr [ %20, %24 ], [ %.pre, %31 ], [ %20, %.preheader ]
  %35 = getelementptr inbounds nuw i8, ptr %34, i64 168
  %36 = getelementptr inbounds nuw i8, ptr %34, i64 208
  %37 = getelementptr inbounds nuw i8, ptr %.0, i64 8
  %38 = load i64, ptr %37, align 8, !tbaa !56
  %39 = load i32, ptr %35, align 8, !tbaa !58
  %40 = zext i32 %39 to i64
  %41 = and i64 %38, %40
  %42 = getelementptr inbounds nuw i8, ptr %36, i64 %41
  %43 = load i32, ptr %42, align 4, !tbaa !59
  %44 = getelementptr inbounds i8, ptr %.0, i64 -4
  store i32 %43, ptr %44, align 4, !tbaa !59
  %45 = ptrtoint ptr %.0 to i64
  %46 = ptrtoint ptr %35 to i64
  %47 = sub i64 %45, %46
  %48 = sdiv i64 %47, 8
  %49 = trunc i64 %48 to i32
  store i32 %49, ptr %42, align 4, !tbaa !59
  %50 = getelementptr inbounds nuw i8, ptr %.0, i64 16
  %51 = load i64, ptr %50, align 8, !tbaa !60
  %52 = add i64 %51, 36
  %53 = and i64 %52, -8
  %54 = getelementptr inbounds nuw i8, ptr %.0, i64 %53
  %55 = add i32 %.1, 1
  %56 = icmp ult ptr %54, %11
  br i1 %56, label %.preheader, label %.loopexit

.loopexit:                                        ; preds = %33, %0
  %57 = phi ptr [ %9, %0 ], [ %34, %33 ]
  %.017 = phi i32 [ 0, %0 ], [ %55, %33 ]
  %58 = getelementptr inbounds nuw i8, ptr %57, i64 172
  store i32 %.017, ptr %58, align 4, !tbaa !62
  ret void
}